/* al/layout/LayoutActor.h */

_ZTVN2al11LayoutActorE = 0x0140b6d8 - 0x01b52000;

_ZN2al11LayoutActorC1EPKc = 0x0096d920 - 0x01b52000;
_ZN2al11LayoutActorC2EPKc = 0x0096db20 - 0x01b52000;

_ZNK2al11LayoutActor7getNameEv = 0x00016ef0 - 0x01b52000;
_ZNK2al11LayoutActor15getLayoutKeeperEv = 0x00016f50 - 0x01b52000;
_ZNK2al11LayoutActor14getNerveKeeperEv = 0x00016ee0 - 0x01b52000;
_ZN2al11LayoutActor6appearEv = 0x0096dc80 - 0x01b52000;
_ZN2al11LayoutActor4killEv = 0x0096dce0 - 0x01b52000;
_ZN2al11LayoutActor8movementEv = 0x0096dd30 - 0x01b52000;
_ZN2al11LayoutActor8calcAnimEb = 0x0096ddd0 - 0x01b52000;
_ZNK2al11LayoutActor15getEffectKeeperEv = 0x00016f20 - 0x01b52000;
_ZNK2al11LayoutActor14getAudioKeeperEv = 0x00016f30 - 0x01b52000;
_ZNK2al11LayoutActor21getLayoutActionKeeperEv = 0x00016f40 - 0x01b52000;
_ZNK2al11LayoutActor17getCameraDirectorEv = 0x0096dfe0 - 0x01b52000;
_ZNK2al11LayoutActor17getSceneObjHolderEv = 0x0096e000 - 0x01b52000;
_ZNK2al11LayoutActor16getMessageSystemEv = 0x0096e020 - 0x01b52000;

_ZThn8_NK2al11LayoutActor15getLayoutKeeperEv = 0x00016fb0 - 0x01b52000;
_ZThn8_NK2al11LayoutActor7getNameEv = 0x00016f70 - 0x01b52000;
_ZThn16_NK2al11LayoutActor7getNameEv = 0x0;
_ZThn16_NK2al11LayoutActor21getLayoutActionKeeperEv = 0x00016fc0 - 0x01b52000;
_ZThn24_NK2al11LayoutActor16getMessageSystemEv = 0x0096e030 - 0x01b52000;
_ZThn32_NK2al11LayoutActor17getCameraDirectorEv = 0x0096dff0 - 0x01b52000;
_ZThn40_NK2al11LayoutActor14getAudioKeeperEv = 0x00016ff0 - 0x01b52000;
_ZThn48_NK2al11LayoutActor15getEffectKeeperEv = 0x00017000 - 0x01b52000;
_ZThn56_NK2al11LayoutActor17getSceneObjHolderEv = 0x0096e010 - 0x01b52000;

_ZN2al11LayoutActor16initActionKeeperEv = 0x0096de30 - 0x01b52000;
_ZN2al11LayoutActor15initAudioKeeperEPNS_11AudioKeeperE = 0x0096df50 - 0x01b52000;
_ZN2al11LayoutActor16initLayoutKeeperEPNS_12LayoutKeeperE = 0x0096de20 - 0x01b52000;
_ZN2al11LayoutActor26initLayoutPartsActorKeeperEi = 0x0096def0 - 0x01b52000;
_ZN2al11LayoutActor9initNerveEPKNS_5NerveEi = 0x0096df60 - 0x01b52000;
_ZN2al11LayoutActor13initSceneInfoEPNS_15LayoutSceneInfoE = 0x0096dee0 - 0x01b52000;
