/* al/actor/LiveActor.h */

_ZN2al9LiveActorC1EPKc = 0x0085b390 - 0x01b52000;
_ZN2al9LiveActorC2EPKc = 0x0085b500 - 0x01b52000;
_ZN2al9LiveActorD1Ev = 0x0085b680 - 0x01b52000;
_ZN2al9LiveActorD2Ev = 0x0085b680 - 0x01b52000;
_ZN2al9LiveActorD4Ev = 0x0085b720 - 0x01b52000;

_ZNK2al9LiveActor14getNerveKeeperEv = 0x00003750 - 0x01b52000;
_ZN2al9LiveActor4initERKNS_13ActorInitInfoE = 0x00003760 - 0x01b52000;
_ZN2al9LiveActor18initAfterPlacementEv = 0x0085b7c0 - 0x01b52000;
_ZN2al9LiveActor6appearEv = 0x0085b800 - 0x01b52000;
_ZN2al9LiveActor4unk1Ev = 0x0085b850 - 0x01b52000;
_ZN2al9LiveActor4unk2Ev = 0x00003770 - 0x01b52000;
_ZN2al9LiveActor17makeActorAppearedEv = 0x0085b860 - 0x01b52000;
_ZN2al9LiveActor4killEv = 0x0085b9b0 - 0x01b52000;
_ZN2al9LiveActor4unk3Ev = 0x0085b9c0 - 0x01b52000;
_ZN2al9LiveActor13makeActorDeadEv = 0x0085b9d0 - 0x01b52000;
_ZN2al9LiveActor4unk4Ev = 0x0085bb10 - 0x01b52000;
_ZN2al9LiveActor4unk5Ev = 0x0085bba0 - 0x01b52000;
_ZN2al9LiveActor4unk6Ev = 0x0085bc20 - 0x01b52000;
_ZN2al9LiveActor4unk7Ev = 0x0085bc30 - 0x01b52000;
_ZN2al9LiveActor4unk8Ev = 0x0085bc40 - 0x01b52000;
_ZN2al9LiveActor8setTransERKN4sead7Vector3IfEE = 0x0085bc50 - 0x01b52000;
_ZN2al9LiveActor8movementEv = 0x0085bec0 - 0x01b52000;
_ZN2al9LiveActor8calcAnimEv = 0x0085bc60 - 0x01b52000;
_ZN2al9LiveActor4unk9Ev = 0x0085c230 - 0x01b52000;
_ZN2al9LiveActor5unk10Ev = 0x0085c2a0 - 0x01b52000;
_ZN2al9LiveActor5unk11Ev = 0x0085c350 - 0x01b52000;
_ZN2al9LiveActor5unk12Ev = 0x0085c390 - 0x01b52000;
_ZN2al9LiveActor5unk13Ev = 0x0085c3a0 - 0x01b52000;
_ZN2al9LiveActor5unk14Ev = 0x0085c3b0 - 0x01b52000;
_ZN2al9LiveActor12startClippedEv = 0x0085c3c0 - 0x01b52000;
_ZN2al9LiveActor10endClippedEv = 0x0085c520 - 0x01b52000;
_ZN2al9LiveActor5unk15Ev = 0x0085c6f0 - 0x01b52000;
_ZN2al9LiveActor5unk16Ev = 0x0085c830 - 0x01b52000;
_ZN2al9LiveActor5unk17Ev = 0x0085ca10 - 0x01b52000;
_ZN2al9LiveActor5unk18Ev = 0x0085cad0 - 0x01b52000;
_ZN2al9LiveActor5unk19Ev = 0x00003780 - 0x01b52000;
_ZN2al9LiveActor5unk20Ev = 0x00003790 - 0x01b52000;
_ZN2al9LiveActor5unk21Ev = 0x000037a0 - 0x01b52000;
_ZN2al9LiveActor10receiveMsgEPKNS_9SensorMsgEPNS_9HitSensorES5_ = 0x000037b0 - 0x01b52000;
_ZN2al9LiveActor21receiveMsgScreenPointEPKNS_9SensorMsgEPNS_13ScreenPointerEPNS_17ScreenPointTargetE = 0x000037c0 - 0x01b52000;
_ZN2al9LiveActor5unk22Ev = 0x0000037d0 - 0x01b52000;
_ZNK2al9LiveActor7getNameEv = 0x000037e0 - 0x01b52000;
_ZN2al9LiveActor10getBaseMtxEv = 0x0085cb90 - 0x01b52000;
_ZNK2al9LiveActor15getEffectKeeperEv = 0x000037f0 - 0x01b52000;
_ZNK2al9LiveActor14getAudioKeeperEv = 0x00003800 - 0x01b52000;
_ZNK2al9LiveActor20getStageSwitchKeeperEv = 0x00003810 - 0x01b52000;
_ZNK2al9LiveActor17getSceneObjHolderEv = 0x0085cbd0 - 0x01b52000;
_ZNK2al9LiveActor20getCollisionDirectorEv = 0x0085cbf0 - 0x01b52000;
_ZNK2al9LiveActor18getAreaObjDirectorEv = 0x0085cc10 - 0x01b52000;
_ZNK2al9LiveActor17getCameraDirectorEv = 0x0085cc30 - 0x01b52000;
_ZNK2al9LiveActor10getUnknownEv = 0x0085cc50 - 0x01b52000;
_ZN2al9LiveActor35isMovePartDisableStaticTouchEffectsEv = 0x00003820 - 0x01b52000;
_ZN2al9LiveActor21initStageSwitchKeeperEv = 0x0085ce00 - 0x01b52000;
_ZN2al9LiveActor5unk24Ev = 0x00003830 - 0x01b52000;
_ZN2al9LiveActor7controlEv = 0x0085d030 - 0x01b52000;
_ZN2al9LiveActor5unk26Ev = 0x00003840 - 0x01b52000;
_ZN2al9LiveActor14updateColliderEv = 0x0085d040 - 0x01b52000;

_ZThn8_NK2al9LiveActor15getEffectKeeperEv = 0x000038c0 - 0x01b52000;
_ZThn16_NK2al9LiveActor14getAudioKeeperEv = 0x000038d0 - 0x01b52000;
_ZThn32_NK2al9LiveActor7getNameEv = 0x00003850 - 0x01b52000;
_ZThn32_NK2al9LiveActor20getStageSwitchKeeperEv = 0x00003870 - 0x01b52000;
_ZThn32_N2al9LiveActor21initStageSwitchKeeperEv = 0x0085ce30  - 0x01b52000;
_ZThn40_NK2al9LiveActor17getSceneObjHolderEv = 0x0085cbe0 - 0x01b52000;
_ZThn48_NK2al9LiveActor18getAreaObjDirectorEv = 0x0085cc20 - 0x01b52000;
_ZThn56_NK2al9LiveActor10getUnknownEv = 0x0085cc40 - 0x01b52000;
_ZThn64_NK2al9LiveActor17getCameraDirectorEv = 0x0085cc60 - 0x01b52000;
_ZThn72_NK2al9LiveActor20getCollisionDirectorEv = 0x0085cc00 - 0x01b52000;

_ZN2al9LiveActor16initActionKeeperEPKcS2_ = 0x0085ccd0 - 0x01b52000;
_ZN2al9LiveActor27initActorPrePassLightKeeperEPNS_23ActorPrePassLightKeeperE = 0x0085cfe0 - 0x01b52000;
_ZN2al9LiveActor12initColliderEffj = 0x0085ce90 - 0x01b52000;
_ZN2al9LiveActor15initExecuteInfoEPNS_16ActorExecuteInfoE = 0x0085cc80 - 0x01b52000;
_ZN2al9LiveActor13initHitSensorEi = 0x0085cd20 - 0x01b52000;
_ZN2al9LiveActor14initItemKeeperEi = 0x0085cf60 - 0x01b52000;
_ZN2al9LiveActor15initModelKeeperEPNS_11ModelKeeperE = 0x0085cc90 - 0x01b52000;
_ZN2al9LiveActor15initNerveKeeperEPNS_11NerveKeeperE = 0x0085cd10 - 0x01b52000;
_ZN2al9LiveActor14initPoseKeeperEPNS_19ActorPoseKeeperBaseE = 0x0085cc70 - 0x01b52000;
_ZN2al9LiveActor14initRailKeeperERKNS_13ActorInitInfoE = 0x0085ce60 - 0x01b52000;
_ZN2al9LiveActor13initSceneInfoEPNS_14ActorSceneInfoE = 0x0085d000 - 0x01b52000;
_ZN2al9LiveActor15initScoreKeeperEv = 0x0085cfb0 - 0x01b52000;
_ZN2al9LiveActor21initScreenPointKeeperEi = 0x0085cd60 - 0x01b52000;
_ZN2al9LiveActor16initShadowKeeperEPNS_12ShadowKeeperE = 0x0085cf50 - 0x01b52000;
