_ZN2al18initActorPoseTFGSVEPNS_9LiveActorE = 0x00835df0 - 0x01b52000;
_ZN2al17initActorPoseTFSVEPNS_9LiveActorE = 0x00835db0 - 0x01b52000;
_ZN2al17initActorPoseTQSVEPNS_9LiveActorE = 0x00835e30 - 0x01b52000;
_ZN2al18initActorPoseTRMSVEPNS_9LiveActorE = 0x00835d70 - 0x01b52000;
_ZN2al17initActorPoseTRSVEPNS_9LiveActorE = 0x00835d30 - 0x01b52000;

_ZN2al8getTransEPKNS_9LiveActorE = 0x0083f840 - 0x01b52000;
_ZN2al9getRotateEPKNS_9LiveActorE = 0x0083fa50 - 0x01b52000;
_ZN2al8getScaleEPKNS_9LiveActorE = 0x0083f850 - 0x01b52000;
_ZN2al11getVelocityEPKNS_9LiveActorE = 0x0083bb10 - 0x01b52000;
_ZN2al8getFrontEPKNS_9LiveActorE = 0x0083feb0 - 0x01b52000;
_ZN2al7getQuatEPKNS_9LiveActorE = 0x0083fe00 - 0x01b52000;
_ZN2al10getGravityEPKNS_9LiveActorE = 0x0083f830 - 0x01b52000;

_ZN2al11getTransPtrEPNS_9LiveActorE = 0x0083f9f0 - 0x01b52000;
_ZN2al12getRotatePtrEPNS_9LiveActorE = 0x0083fa60 - 0x01b52000;
_ZN2al11getScalePtrEPNS_9LiveActorE = 0x0083fc30 - 0x01b52000;
_ZN2al14getVelocityPtrEPNS_9LiveActorE = 0x0083bb20 - 0x01b52000;
_ZN2al11getFrontPtrEPNS_9LiveActorE = 0x0083fec0 - 0x01b52000;
_ZN2al10getQuatPtrEPNS_9LiveActorE = 0x0083fe10 - 0x01b52000;
_ZN2al13getGravityPtrEPNS_9LiveActorE = 0x00250530 - 0x01b52000;

_ZN2al8setTransEPNS_9LiveActorERKN4sead7Vector3IfEE = 0x0083f760 - 0x01b52000;
_ZN2al8setTransEPNS_9LiveActorEfff = 0x0083fa00 - 0x01b52000;
_ZN2al9setTransXEPNS_9LiveActorEf = 0x0083fa20 - 0x01b52000;
_ZN2al9setTransYEPNS_9LiveActorEf = 0x0083fa30 - 0x01b52000;
_ZN2al9setTransZEPNS_9LiveActorEf = 0x0083fa40 - 0x01b52000;

_ZN2al9setRotateEPNS_9LiveActorERKN4sead7Vector3IfEE = 0x0083f780 - 0x01b52000;
_ZN2al10setRotateXEPNS_9LiveActorEf = 0x0083fa70 - 0x01b52000;
_ZN2al10setRotateYEPNS_9LiveActorEf = 0x0083faa0 - 0x01b52000;
_ZN2al10setRotateZEPNS_9LiveActorEf = 0x0083fad0 - 0x01b52000;

_ZN2al8setScaleEPNS_9LiveActorERKN4sead7Vector3IfEE = 0x0083fcc0 - 0x01b52000;
_ZN2al8setScaleEPNS_9LiveActorEfff = 0x0083fd10 - 0x01b52000;
_ZN2al8setScaleEPNS_9LiveActorEf = 0x0083fd60 - 0x01b52000;
_ZN2al9setScaleYEPNS_9LiveActorEf = 0x00083fda0 - 0x01b52000;
_ZN2al9setScaleZEPNS_9LiveActorEf = 0x0083fdd0 - 0x01b52000;

_ZN2al11setVelocityEPNS_9LiveActorERKN4sead7Vector3IfEE = 0x0083bb30 - 0x01b52000;
_ZN2al11setVelocityEPNS_9LiveActorEfff = 0x0083bb70 - 0x01b52000;
_ZN2al12setVelocityXEPNS_9LiveActorEf = 0x0083bbc0 - 0x01b52000;
_ZN2al12setVelocityYEPNS_9LiveActorEf = 0x0083bbf0 - 0x01b52000;

_ZN2al15setVelocityZeroEPNS_9LiveActorE = 0x0083bc20 - 0x01b52000;
_ZN2al15setVelocityJumpEPNS_9LiveActorEf = 0x0083bc90 - 0x01b52000;
_ZN2al22setVelocityToDirectionEPNS_9LiveActorERKN4sead7Vector3IfEEf = 0x0083bd00 - 0x01b52000;
_ZN2al20setVelocityToGravityEPNS_9LiveActorEf = 0x0083bd70 - 0x01b52000;
_ZN2al20addVelocityToGravityEPNS_9LiveActorEf = 0x0083bf00 - 0x01b52000;

_ZN2al8setFrontEPNS_9LiveActorERKN4sead7Vector3IfEE = 0x0083fed0 - 0x01b52000;

_ZN2al7setQuatEPNS_9LiveActorERKN4sead4QuatIfEE = 0x0083fe30 - 0x01b52000;

_ZN2al10setGravityEPNS_9LiveActorERKN4sead7Vector3IfEE = 0x0083fe70 - 0x01b52000;

_ZN2al8copyPoseEPNS_9LiveActorEPKS0_ = 0x0083f860 - 0x01b52000;