/* ActorActionKeeper */

_ZN2al11startActionEPNS_9LiveActorEPKc = 0x008326c0 - 0x01b52000;
_ZN2al26tryStartActionIfNotPlayingEPNS_9LiveActorEPKc = 0x008328b0 - 0x01b52000;
_ZN2al14tryStartActionEPNS_9LiveActorEPKc = 0x008327e0 - 0x01b52000;

_ZN2al13getActionNameEPKNS_9LiveActorE = 0x00832d10 - 0x01b52000;
_ZN2al14getActionFrameEPKNS_9LiveActorE = 0x00832cb0 - 0x01b52000;
_ZN2al11isActionEndEPKNS_9LiveActorE = 0x008329f0 - 0x01b52000;

_ZN2al19setSklAnimFrameRateEPNS_9LiveActorEfi = 0x00833bc0 - 0x01b52000;
_ZN2al19getSklAnimFrameRateEPKNS_9LiveActorEi = 0x00833b70 - 0x01b52000;
_ZN2al14isSklAnimExistEP = 0x00833af0 - 0x01b52000;
_ZN2al14isSklAnimExistEPKNS_9LiveActorEPKc = 0x008336e0 - 0x01b52000;
_ZN2al35addPartialSklAnimPartsListRecursiveEPNS_9LiveActorEPKci = 0x00834a40 - 0x01b52000;
_ZN2al21clearSklAnimInterpoleEPNS_9LiveActorE = 0x00833ae0 - 0x01b52000;

_ZN2al28setSklAnimBlendWeightSixfoldEPNS_9LiveActorEffffff = 0x00833c90 - 0x01b52000;

_ZN2al27validateSklAnimRetargettingEPKNS_9LiveActorE = 0x00833aa0 - 0x01b52000;
_ZN2al29invalidateSklAnimRetargettingEPKNS_9LiveActorE = 0x00833ac0 - 0x01b52000;

_ZN2al16startHitReactionEPKNS_9LiveActorEPKc = 0x008332d0 - 0x01b52000;
_ZN2al25startHitReactionDisappearEPKNS_9LiveActorE = 0x00833420 - 0x01b52000;

/* Clipping */

_ZN2al16validateClippingEPNS_9LiveActorE = 0x008354f0 - 0x01b52000;
_ZN2al18invalidateClippingEPNS_9LiveActorE = 0x00835480 - 0x01b52000;

/* HitSensorKeeper */

_ZN2al12getHitSensorEPKNS_9LiveActorEPKc = 0x008413d0 - 0x01b52000;
_ZN2al13getSensorHostEPKNS_9HitSensorE = 0x008421b0 - 0x01b52000;

/* Init */

_ZN2al9initActorEPNS_9LiveActorERKNS_13ActorInitInfoE = 0x00838240 - 0x01b52000;
_ZN2al24initActorWithArchiveNameEPNS_9LiveActorERKNS_13ActorInitInfoERKN4sead14SafeStringBaseIcEEPKc = 0x00838370 - 0x01b52000;

_ZN2al30initCreateActorNoPlacementInfoEPNS_9LiveActorERKNS_13ActorInitInfoE = 0x00838d10 - 0x01b52000;
_ZN2al14initLinksActorEPNS_9LiveActorERKNS_13ActorInitInfoEPKci = 0x00838a90 - 0x01b52000;

_ZN2al20initActorAudioKeeperEPNS_9LiveActorERKNS_13ActorInitInfoEPKcPKN4sead7Vector3IfEEPKNS7_8Matrix34IfEE = 0x00836310 - 0x01b52000;
_ZN2al17initActorClippingEPNS_9LiveActorERKNS_13ActorInitInfoE = 0x00834e70 - 0x01b52000;
_ZN2al21initActorEffectKeeperEPNS_9LiveActorERKNS_13ActorInitInfoEPKc = 0x00836280 - 0x01b52000;
_ZN2al20initActorModelKeeperEPNS_9LiveActorERKNS_13ActorInitInfoEPKciS6_ = 0x00835ff0 - 0x01b52000;
_ZN2al18initActorSceneInfoEPNS_9LiveActorERKNS_13ActorInitInfoE = 0x00835bc0 - 0x01b52000;
_ZN2al12initActorSRTEPNS_9LiveActorERKNS_13ActorInitInfoE = 0x00835e70 - 0x01b52000;

_ZN2al9initNerveEPNS_9LiveActorEPKNS_5NerveEi = 0x00839010 - 0x01b52000;
_ZN2al25initJointControllerKeeperEPKNS_9LiveActorEi = 0x00815d10 - 0x01b52000;

/* Executor */

_ZN2al18initExecutorMapObjEPNS_9LiveActorERKNS_13ActorInitInfoE = 0x00835cb0 - 0x01b52000;
_ZN2al25initExecutorEnemyMovementEPNS_9LiveActorERKNS_13ActorInitInfoE = 0x00835c90 - 0x01b52000;
_ZN2al26initExecutorPlayerMovementEPNS_9LiveActorERKNS_13ActorInitInfoE = 0x00835c80 - 0x01b52000;